; Function Attrs: nounwind sspstrong uwtable
define internal range(i64 0, 21) i64 @recursive_equal(i64 noundef %0, i64 noundef %1, i32 noundef %2) #0 {
  %.not = icmp eq i32 %2, 0
  br i1 %.not, label %4, label %49

4:                                                ; preds = %3
  %5 = inttoptr i64 %0 to ptr
  %6 = getelementptr inbounds nuw i8, ptr %5, i64 16
  %7 = load i64, ptr %6, align 8, !tbaa !13
  %8 = inttoptr i64 %1 to ptr
  %9 = getelementptr inbounds nuw i8, ptr %8, i64 16
  %10 = load i64, ptr %9, align 8, !tbaa !13
  %11 = tail call i64 @rb_equal(i64 noundef %7, i64 noundef %10) #13
  %.not8 = icmp eq i64 %11, 0
  br i1 %.not8, label %49, label %12

12:                                               ; preds = %4
  %13 = load i64, ptr %5, align 8, !tbaa !11
  %14 = and i64 %13, 1040384
  %.not.i.i.i = icmp eq i64 %14, 0
  br i1 %.not.i.i.i, label %15, label %RANGE_END.exit

15:                                               ; preds = %12
  %16 = getelementptr inbounds nuw i8, ptr %5, i64 24
  %17 = load ptr, ptr %16, align 8, !tbaa !13
  br label %RANGE_END.exit

RANGE_END.exit:                                   ; preds = %12, %15
  %.0.i.i.i = phi ptr [ %17, %15 ], [ %6, %12 ]
  %18 = getelementptr i8, ptr %.0.i.i.i, i64 8
  %19 = load i64, ptr %18, align 8, !tbaa !7
  %20 = load i64, ptr %8, align 8, !tbaa !11
  %21 = and i64 %20, 1040384
  %.not.i.i.i10 = icmp eq i64 %21, 0
  br i1 %.not.i.i.i10, label %22, label %RANGE_END.exit12

22:                                               ; preds = %RANGE_END.exit
  %23 = getelementptr inbounds nuw i8, ptr %8, i64 24
  %24 = load ptr, ptr %23, align 8, !tbaa !13
  br label %RANGE_END.exit12

RANGE_END.exit12:                                 ; preds = %RANGE_END.exit, %22
  %.0.i.i.i11 = phi ptr [ %24, %22 ], [ %9, %RANGE_END.exit ]
  %25 = getelementptr i8, ptr %.0.i.i.i11, i64 8
  %26 = load i64, ptr %25, align 8, !tbaa !7
  %27 = tail call i64 @rb_equal(i64 noundef %19, i64 noundef %26) #13
  %.not9 = icmp eq i64 %27, 0
  br i1 %.not9, label %49, label %28

28:                                               ; preds = %RANGE_END.exit12
  %29 = load i64, ptr %5, align 8, !tbaa !11
  %30 = and i64 %29, 1040384
  %.not.i.i.i13 = icmp eq i64 %30, 0
  br i1 %.not.i.i.i13, label %31, label %RANGE_EXCL.exit

31:                                               ; preds = %28
  %32 = getelementptr inbounds nuw i8, ptr %5, i64 24
  %33 = load ptr, ptr %32, align 8, !tbaa !13
  br label %RANGE_EXCL.exit

RANGE_EXCL.exit:                                  ; preds = %28, %31
  %.0.i.i.i14 = phi ptr [ %33, %31 ], [ %6, %28 ]
  %34 = getelementptr i8, ptr %.0.i.i.i14, i64 16
  %35 = load i64, ptr %34, align 8, !tbaa !7
  %36 = and i64 %35, -5
  %37 = icmp ne i64 %36, 0
  %38 = load i64, ptr %8, align 8, !tbaa !11
  %39 = and i64 %38, 1040384
  %.not.i.i.i15 = icmp eq i64 %39, 0
  br i1 %.not.i.i.i15, label %40, label %RANGE_EXCL.exit17

40:                                               ; preds = %RANGE_EXCL.exit
  %41 = getelementptr inbounds nuw i8, ptr %8, i64 24
  %42 = load ptr, ptr %41, align 8, !tbaa !13
  br label %RANGE_EXCL.exit17

RANGE_EXCL.exit17:                                ; preds = %RANGE_EXCL.exit, %40
  %.0.i.i.i16 = phi ptr [ %42, %40 ], [ %9, %RANGE_EXCL.exit ]
  %43 = getelementptr i8, ptr %.0.i.i.i16, i64 16
  %44 = load i64, ptr %43, align 8, !tbaa !7
  %45 = and i64 %44, -5
  %46 = icmp ne i64 %45, 0
  %47 = xor i1 %37, %46
  %48 = select i1 %47, i64 0, i64 20
  br label %49

49:                                               ; preds = %RANGE_END.exit12, %4, %3, %RANGE_EXCL.exit17
  %.0 = phi i64 [ %48, %RANGE_EXCL.exit17 ], [ 20, %3 ], [ 0, %4 ], [ 0, %RANGE_END.exit12 ]
  ret i64 %.0
}